#include <math.h>
#include <stdio.h>
#include <stdlib.h>
#include <string.h>

struct student
{
	int num;
	int liter;
	int math;
	int total;
};
int main()
{
	int i,j,k,n;
	struct student a[100000],n1,n2,n3;
	scanf("%d",&n);
	scanf("%d%d%d",&a[0].num,&a[0].liter,&a[0].math);
	a[0].total=a[0].liter+a[0].math;
	n1=n2=n3=a[0];
	for(i=1;i<n;i++)
	{
		scanf("%d%d%d",&a[i].num,&a[i].liter,&a[i].math);
		a[i].total=a[i].liter+a[i].math;
		if(a[i].total>n1.total)
		{
			n3=n2;
			n2=n1;
			n1=a[i];
		}
		else if(a[i].total>n2.total)
		{
			n3=n2;
			n2=a[i];
		}
		else if(a[i].total>n3.total)
			n3=a[i];
	}
	printf("%d %d\n",n1.num,n1.total);
	printf("%d %d\n",n2.num,n2.total);
	printf("%d %d",n3.num,n3.total);
		return 0;
}