; ModuleID = '14/649.c'
source_filename = "14/649.c"
target datalayout = "e-m:e-p270:32:32-p271:32:32-p272:64:64-i64:64-f80:128-n8:16:32:64-S128"
target triple = "x86_64-pc-linux-gnu"

%struct.student = type { i32, i32, i32, i32 }

@.str = private unnamed_addr constant [3 x i8] c"%d\00", align 1
@.str.1 = private unnamed_addr constant [7 x i8] c"%d%d%d\00", align 1
@.str.2 = private unnamed_addr constant [7 x i8] c"%d %d\0A\00", align 1
@.str.3 = private unnamed_addr constant [6 x i8] c"%d %d\00", align 1

; Function Attrs: noinline nounwind uwtable
define dso_local i32 @main() #0 {
  %1 = alloca i32, align 4
  %2 = alloca i32, align 4
  %3 = alloca i32, align 4
  %4 = alloca i32, align 4
  %5 = alloca i32, align 4
  %6 = alloca [100000 x %struct.student], align 16
  %7 = alloca %struct.student, align 4
  %8 = alloca %struct.student, align 4
  %9 = alloca %struct.student, align 4
  store i32 0, i32* %1, align 4
  %10 = call i32 (i8*, ...) @__isoc99_scanf(i8* getelementptr inbounds ([3 x i8], [3 x i8]* @.str, i64 0, i64 0), i32* %5)
  %11 = getelementptr inbounds [100000 x %struct.student], [100000 x %struct.student]* %6, i64 0, i64 0
  %12 = getelementptr inbounds %struct.student, %struct.student* %11, i32 0, i32 0
  %13 = getelementptr inbounds [100000 x %struct.student], [100000 x %struct.student]* %6, i64 0, i64 0
  %14 = getelementptr inbounds %struct.student, %struct.student* %13, i32 0, i32 1
  %15 = getelementptr inbounds [100000 x %struct.student], [100000 x %struct.student]* %6, i64 0, i64 0
  %16 = getelementptr inbounds %struct.student, %struct.student* %15, i32 0, i32 2
  %17 = call i32 (i8*, ...) @__isoc99_scanf(i8* getelementptr inbounds ([7 x i8], [7 x i8]* @.str.1, i64 0, i64 0), i32* %12, i32* %14, i32* %16)
  %18 = getelementptr inbounds [100000 x %struct.student], [100000 x %struct.student]* %6, i64 0, i64 0
  %19 = getelementptr inbounds %struct.student, %struct.student* %18, i32 0, i32 1
  %20 = load i32, i32* %19, align 4
  %21 = getelementptr inbounds [100000 x %struct.student], [100000 x %struct.student]* %6, i64 0, i64 0
  %22 = getelementptr inbounds %struct.student, %struct.student* %21, i32 0, i32 2
  %23 = load i32, i32* %22, align 8
  %24 = add nsw i32 %20, %23
  %25 = getelementptr inbounds [100000 x %struct.student], [100000 x %struct.student]* %6, i64 0, i64 0
  %26 = getelementptr inbounds %struct.student, %struct.student* %25, i32 0, i32 3
  store i32 %24, i32* %26, align 4
  %27 = getelementptr inbounds [100000 x %struct.student], [100000 x %struct.student]* %6, i64 0, i64 0
  %28 = bitcast %struct.student* %9 to i8*
  %29 = bitcast %struct.student* %27 to i8*
  call void @llvm.memcpy.p0i8.p0i8.i64(i8* align 4 %28, i8* align 16 %29, i64 16, i1 false)
  %30 = bitcast %struct.student* %8 to i8*
  %31 = bitcast %struct.student* %9 to i8*
  call void @llvm.memcpy.p0i8.p0i8.i64(i8* align 4 %30, i8* align 4 %31, i64 16, i1 false)
  %32 = bitcast %struct.student* %7 to i8*
  %33 = bitcast %struct.student* %8 to i8*
  call void @llvm.memcpy.p0i8.p0i8.i64(i8* align 4 %32, i8* align 4 %33, i64 16, i1 false)
  store i32 1, i32* %2, align 4
  br label %34

34:                                               ; preds = %120, %0
  %35 = load i32, i32* %2, align 4
  %36 = load i32, i32* %5, align 4
  %37 = icmp slt i32 %35, %36
  br i1 %37, label %38, label %123

38:                                               ; preds = %34
  %39 = load i32, i32* %2, align 4
  %40 = sext i32 %39 to i64
  %41 = getelementptr inbounds [100000 x %struct.student], [100000 x %struct.student]* %6, i64 0, i64 %40
  %42 = getelementptr inbounds %struct.student, %struct.student* %41, i32 0, i32 0
  %43 = load i32, i32* %2, align 4
  %44 = sext i32 %43 to i64
  %45 = getelementptr inbounds [100000 x %struct.student], [100000 x %struct.student]* %6, i64 0, i64 %44
  %46 = getelementptr inbounds %struct.student, %struct.student* %45, i32 0, i32 1
  %47 = load i32, i32* %2, align 4
  %48 = sext i32 %47 to i64
  %49 = getelementptr inbounds [100000 x %struct.student], [100000 x %struct.student]* %6, i64 0, i64 %48
  %50 = getelementptr inbounds %struct.student, %struct.student* %49, i32 0, i32 2
  %51 = call i32 (i8*, ...) @__isoc99_scanf(i8* getelementptr inbounds ([7 x i8], [7 x i8]* @.str.1, i64 0, i64 0), i32* %42, i32* %46, i32* %50)
  %52 = load i32, i32* %2, align 4
  %53 = sext i32 %52 to i64
  %54 = getelementptr inbounds [100000 x %struct.student], [100000 x %struct.student]* %6, i64 0, i64 %53
  %55 = getelementptr inbounds %struct.student, %struct.student* %54, i32 0, i32 1
  %56 = load i32, i32* %55, align 4
  %57 = load i32, i32* %2, align 4
  %58 = sext i32 %57 to i64
  %59 = getelementptr inbounds [100000 x %struct.student], [100000 x %struct.student]* %6, i64 0, i64 %58
  %60 = getelementptr inbounds %struct.student, %struct.student* %59, i32 0, i32 2
  %61 = load i32, i32* %60, align 8
  %62 = add nsw i32 %56, %61
  %63 = load i32, i32* %2, align 4
  %64 = sext i32 %63 to i64
  %65 = getelementptr inbounds [100000 x %struct.student], [100000 x %struct.student]* %6, i64 0, i64 %64
  %66 = getelementptr inbounds %struct.student, %struct.student* %65, i32 0, i32 3
  store i32 %62, i32* %66, align 4
  %67 = load i32, i32* %2, align 4
  %68 = sext i32 %67 to i64
  %69 = getelementptr inbounds [100000 x %struct.student], [100000 x %struct.student]* %6, i64 0, i64 %68
  %70 = getelementptr inbounds %struct.student, %struct.student* %69, i32 0, i32 3
  %71 = load i32, i32* %70, align 4
  %72 = getelementptr inbounds %struct.student, %struct.student* %7, i32 0, i32 3
  %73 = load i32, i32* %72, align 4
  %74 = icmp sgt i32 %71, %73
  br i1 %74, label %75, label %85

75:                                               ; preds = %38
  %76 = bitcast %struct.student* %9 to i8*
  %77 = bitcast %struct.student* %8 to i8*
  call void @llvm.memcpy.p0i8.p0i8.i64(i8* align 4 %76, i8* align 4 %77, i64 16, i1 false)
  %78 = bitcast %struct.student* %8 to i8*
  %79 = bitcast %struct.student* %7 to i8*
  call void @llvm.memcpy.p0i8.p0i8.i64(i8* align 4 %78, i8* align 4 %79, i64 16, i1 false)
  %80 = load i32, i32* %2, align 4
  %81 = sext i32 %80 to i64
  %82 = getelementptr inbounds [100000 x %struct.student], [100000 x %struct.student]* %6, i64 0, i64 %81
  %83 = bitcast %struct.student* %7 to i8*
  %84 = bitcast %struct.student* %82 to i8*
  call void @llvm.memcpy.p0i8.p0i8.i64(i8* align 4 %83, i8* align 16 %84, i64 16, i1 false)
  br label %119

85:                                               ; preds = %38
  %86 = load i32, i32* %2, align 4
  %87 = sext i32 %86 to i64
  %88 = getelementptr inbounds [100000 x %struct.student], [100000 x %struct.student]* %6, i64 0, i64 %87
  %89 = getelementptr inbounds %struct.student, %struct.student* %88, i32 0, i32 3
  %90 = load i32, i32* %89, align 4
  %91 = getelementptr inbounds %struct.student, %struct.student* %8, i32 0, i32 3
  %92 = load i32, i32* %91, align 4
  %93 = icmp sgt i32 %90, %92
  br i1 %93, label %94, label %102

94:                                               ; preds = %85
  %95 = bitcast %struct.student* %9 to i8*
  %96 = bitcast %struct.student* %8 to i8*
  call void @llvm.memcpy.p0i8.p0i8.i64(i8* align 4 %95, i8* align 4 %96, i64 16, i1 false)
  %97 = load i32, i32* %2, align 4
  %98 = sext i32 %97 to i64
  %99 = getelementptr inbounds [100000 x %struct.student], [100000 x %struct.student]* %6, i64 0, i64 %98
  %100 = bitcast %struct.student* %8 to i8*
  %101 = bitcast %struct.student* %99 to i8*
  call void @llvm.memcpy.p0i8.p0i8.i64(i8* align 4 %100, i8* align 16 %101, i64 16, i1 false)
  br label %118

102:                                              ; preds = %85
  %103 = load i32, i32* %2, align 4
  %104 = sext i32 %103 to i64
  %105 = getelementptr inbounds [100000 x %struct.student], [100000 x %struct.student]* %6, i64 0, i64 %104
  %106 = getelementptr inbounds %struct.student, %struct.student* %105, i32 0, i32 3
  %107 = load i32, i32* %106, align 4
  %108 = getelementptr inbounds %struct.student, %struct.student* %9, i32 0, i32 3
  %109 = load i32, i32* %108, align 4
  %110 = icmp sgt i32 %107, %109
  br i1 %110, label %111, label %117

111:                                              ; preds = %102
  %112 = load i32, i32* %2, align 4
  %113 = sext i32 %112 to i64
  %114 = getelementptr inbounds [100000 x %struct.student], [100000 x %struct.student]* %6, i64 0, i64 %113
  %115 = bitcast %struct.student* %9 to i8*
  %116 = bitcast %struct.student* %114 to i8*
  call void @llvm.memcpy.p0i8.p0i8.i64(i8* align 4 %115, i8* align 16 %116, i64 16, i1 false)
  br label %117

117:                                              ; preds = %111, %102
  br label %118

118:                                              ; preds = %117, %94
  br label %119

119:                                              ; preds = %118, %75
  br label %120

120:                                              ; preds = %119
  %121 = load i32, i32* %2, align 4
  %122 = add nsw i32 %121, 1
  store i32 %122, i32* %2, align 4
  br label %34

123:                                              ; preds = %34
  %124 = getelementptr inbounds %struct.student, %struct.student* %7, i32 0, i32 0
  %125 = load i32, i32* %124, align 4
  %126 = getelementptr inbounds %struct.student, %struct.student* %7, i32 0, i32 3
  %127 = load i32, i32* %126, align 4
  %128 = call i32 (i8*, ...) @printf(i8* getelementptr inbounds ([7 x i8], [7 x i8]* @.str.2, i64 0, i64 0), i32 %125, i32 %127)
  %129 = getelementptr inbounds %struct.student, %struct.student* %8, i32 0, i32 0
  %130 = load i32, i32* %129, align 4
  %131 = getelementptr inbounds %struct.student, %struct.student* %8, i32 0, i32 3
  %132 = load i32, i32* %131, align 4
  %133 = call i32 (i8*, ...) @printf(i8* getelementptr inbounds ([7 x i8], [7 x i8]* @.str.2, i64 0, i64 0), i32 %130, i32 %132)
  %134 = getelementptr inbounds %struct.student, %struct.student* %9, i32 0, i32 0
  %135 = load i32, i32* %134, align 4
  %136 = getelementptr inbounds %struct.student, %struct.student* %9, i32 0, i32 3
  %137 = load i32, i32* %136, align 4
  %138 = call i32 (i8*, ...) @printf(i8* getelementptr inbounds ([6 x i8], [6 x i8]* @.str.3, i64 0, i64 0), i32 %135, i32 %137)
  ret i32 0
}

declare dso_local i32 @__isoc99_scanf(i8*, ...) #1

; Function Attrs: argmemonly nounwind willreturn
declare void @llvm.memcpy.p0i8.p0i8.i64(i8* noalias nocapture writeonly, i8* noalias nocapture readonly, i64, i1 immarg) #2

declare dso_local i32 @printf(i8*, ...) #1


!llvm.module.flags = !{!0}
!llvm.ident = !{!1}

!0 = !{i32 1, !"wchar_size", i32 4}
!1 = !{!"clang version 10.0.0-4ubuntu1 "}
